target datalayout = "e-m:e-p270:32:32-p271:32:32-p272:64:64-i64:64-i128:128-f80:128-n8:16:32:64-S128"
target triple = "x86_64-pc-linux-gnu"

%struct.AVChannelLayout = type { i32, i32, %union.anon.1, ptr }
%union.anon.1 = type { i64 }
%struct.AVRational = type { i32, i32 }
%struct.AVFrame = type { [8 x ptr], [8 x i32], ptr, i32, i32, i32, i32, i32, %struct.AVRational, i64, i64, %struct.AVRational, i32, ptr, i32, i32, [8 x ptr], ptr, i32, ptr, i32, i32, i32, i32, i32, i32, i32, i64, ptr, i32, ptr, ptr, i64, i64, i64, i64, ptr, %struct.AVChannelLayout, i64 }

; Function Attrs: nounwind uwtable
define internal i32 @is_same3_16(ptr noundef %0, i32 noundef %1, i32 noundef %2, i32 noundef %3, i32 noundef %4, i32 noundef %5, i32 noundef %6) #1 {
  %8 = alloca i32, align 4
  %9 = alloca ptr, align 8
  %10 = alloca i32, align 4
  %11 = alloca i32, align 4
  %12 = alloca i32, align 4
  %13 = alloca i32, align 4
  %14 = alloca i32, align 4
  %15 = alloca i32, align 4
  %16 = alloca i32, align 4
  %17 = alloca i32, align 4
  %18 = alloca i32, align 4
  %19 = alloca i32, align 4
  store ptr %0, ptr %9, align 8, !tbaa !26
  store i32 %1, ptr %10, align 4, !tbaa !36
  store i32 %2, ptr %11, align 4, !tbaa !36
  store i32 %3, ptr %12, align 4, !tbaa !36
  store i32 %4, ptr %13, align 4, !tbaa !36
  store i32 %5, ptr %14, align 4, !tbaa !36
  store i32 %6, ptr %15, align 4, !tbaa !36
  call void @llvm.lifetime.start.p0(i64 4, ptr %16) #4
  %20 = load ptr, ptr %9, align 8, !tbaa !26
  %21 = getelementptr inbounds nuw %struct.AVFrame, ptr %20, i32 0, i32 0
  %22 = getelementptr inbounds [8 x ptr], ptr %21, i64 0, i64 0
  %23 = load ptr, ptr %22, align 8, !tbaa !70
  %24 = load i32, ptr %11, align 4, !tbaa !36
  %25 = load ptr, ptr %9, align 8, !tbaa !26
  %26 = getelementptr inbounds nuw %struct.AVFrame, ptr %25, i32 0, i32 1
  %27 = getelementptr inbounds [8 x i32], ptr %26, i64 0, i64 0
  %28 = load i32, ptr %27, align 8, !tbaa !36
  %29 = mul nsw i32 %24, %28
  %30 = sext i32 %29 to i64
  %31 = getelementptr inbounds i8, ptr %23, i64 %30
  %32 = load i32, ptr %10, align 4, !tbaa !36
  %33 = mul nsw i32 2, %32
  %34 = sext i32 %33 to i64
  %35 = getelementptr inbounds i8, ptr %31, i64 %34
  %36 = load i16, ptr %35, align 1, !tbaa !71
  %37 = zext i16 %36 to i32
  store i32 %37, ptr %16, align 4, !tbaa !36
  call void @llvm.lifetime.start.p0(i64 4, ptr %17) #4
  %38 = load ptr, ptr %9, align 8, !tbaa !26
  %39 = getelementptr inbounds nuw %struct.AVFrame, ptr %38, i32 0, i32 0
  %40 = getelementptr inbounds [8 x ptr], ptr %39, i64 0, i64 1
  %41 = load ptr, ptr %40, align 8, !tbaa !70
  %42 = load i32, ptr %11, align 4, !tbaa !36
  %43 = load ptr, ptr %9, align 8, !tbaa !26
  %44 = getelementptr inbounds nuw %struct.AVFrame, ptr %43, i32 0, i32 1
  %45 = getelementptr inbounds [8 x i32], ptr %44, i64 0, i64 1
  %46 = load i32, ptr %45, align 4, !tbaa !36
  %47 = mul nsw i32 %42, %46
  %48 = sext i32 %47 to i64
  %49 = getelementptr inbounds i8, ptr %41, i64 %48
  %50 = load i32, ptr %10, align 4, !tbaa !36
  %51 = mul nsw i32 2, %50
  %52 = sext i32 %51 to i64
  %53 = getelementptr inbounds i8, ptr %49, i64 %52
  %54 = load i16, ptr %53, align 1, !tbaa !71
  %55 = zext i16 %54 to i32
  store i32 %55, ptr %17, align 4, !tbaa !36
  call void @llvm.lifetime.start.p0(i64 4, ptr %18) #4
  %56 = load ptr, ptr %9, align 8, !tbaa !26
  %57 = getelementptr inbounds nuw %struct.AVFrame, ptr %56, i32 0, i32 0
  %58 = getelementptr inbounds [8 x ptr], ptr %57, i64 0, i64 2
  %59 = load ptr, ptr %58, align 8, !tbaa !70
  %60 = load i32, ptr %11, align 4, !tbaa !36
  %61 = load ptr, ptr %9, align 8, !tbaa !26
  %62 = getelementptr inbounds nuw %struct.AVFrame, ptr %61, i32 0, i32 1
  %63 = getelementptr inbounds [8 x i32], ptr %62, i64 0, i64 2
  %64 = load i32, ptr %63, align 8, !tbaa !36
  %65 = mul nsw i32 %60, %64
  %66 = sext i32 %65 to i64
  %67 = getelementptr inbounds i8, ptr %59, i64 %66
  %68 = load i32, ptr %10, align 4, !tbaa !36
  %69 = mul nsw i32 2, %68
  %70 = sext i32 %69 to i64
  %71 = getelementptr inbounds i8, ptr %67, i64 %70
  %72 = load i16, ptr %71, align 1, !tbaa !71
  %73 = zext i16 %72 to i32
  store i32 %73, ptr %18, align 4, !tbaa !36
  %74 = load i32, ptr %12, align 4, !tbaa !36
  %75 = load i32, ptr %16, align 4, !tbaa !36
  %76 = icmp eq i32 %74, %75
  br i1 %76, label %77, label %86

77:                                               ; preds = %7
  %78 = load i32, ptr %13, align 4, !tbaa !36
  %79 = load i32, ptr %17, align 4, !tbaa !36
  %80 = icmp eq i32 %78, %79
  br i1 %80, label %81, label %86

81:                                               ; preds = %77
  %82 = load i32, ptr %14, align 4, !tbaa !36
  %83 = load i32, ptr %18, align 4, !tbaa !36
  %84 = icmp eq i32 %82, %83
  br i1 %84, label %85, label %86

85:                                               ; preds = %81
  store i32 1, ptr %8, align 4
  store i32 1, ptr %19, align 4
  br label %87

86:                                               ; preds = %81, %77, %7
  store i32 0, ptr %8, align 4
  store i32 1, ptr %19, align 4
  br label %87

87:                                               ; preds = %86, %85
  call void @llvm.lifetime.end.p0(i64 4, ptr %18) #4
  call void @llvm.lifetime.end.p0(i64 4, ptr %17) #4
  call void @llvm.lifetime.end.p0(i64 4, ptr %16) #4
  %88 = load i32, ptr %8, align 4
  ret i32 %88
}