; Function Attrs: mustprogress nofree norecurse nosync nounwind willreturn memory(read, inaccessiblemem: none) uwtable
define internal range(i32 0, 2) i32 @is_same3_16(ptr noundef readonly captures(none) %0, i32 noundef %1, i32 noundef %2, i32 noundef %3, i32 noundef %4, i32 noundef %5, i32 %6) #5 {
  %8 = load ptr, ptr %0, align 8, !tbaa !65
  %9 = getelementptr inbounds nuw i8, ptr %0, i64 64
  %10 = load i32, ptr %9, align 8, !tbaa !31
  %11 = mul nsw i32 %10, %2
  %12 = sext i32 %11 to i64
  %13 = getelementptr inbounds i8, ptr %8, i64 %12
  %14 = shl nsw i32 %1, 1
  %15 = sext i32 %14 to i64
  %16 = getelementptr inbounds i8, ptr %13, i64 %15
  %17 = load i16, ptr %16, align 1, !tbaa !66
  %18 = zext i16 %17 to i32
  %19 = icmp eq i32 %3, %18
  br i1 %19, label %20, label %43

20:                                               ; preds = %7
  %21 = getelementptr inbounds nuw i8, ptr %0, i64 16
  %22 = load ptr, ptr %21, align 8, !tbaa !65
  %23 = getelementptr inbounds nuw i8, ptr %0, i64 72
  %24 = load i32, ptr %23, align 8, !tbaa !31
  %25 = mul nsw i32 %24, %2
  %26 = sext i32 %25 to i64
  %27 = getelementptr inbounds i8, ptr %22, i64 %26
  %28 = getelementptr inbounds i8, ptr %27, i64 %15
  %29 = load i16, ptr %28, align 1, !tbaa !66
  %30 = zext i16 %29 to i32
  %31 = getelementptr inbounds nuw i8, ptr %0, i64 8
  %32 = load ptr, ptr %31, align 8, !tbaa !65
  %33 = getelementptr inbounds nuw i8, ptr %0, i64 68
  %34 = load i32, ptr %33, align 4, !tbaa !31
  %35 = mul nsw i32 %34, %2
  %36 = sext i32 %35 to i64
  %37 = getelementptr inbounds i8, ptr %32, i64 %36
  %38 = getelementptr inbounds i8, ptr %37, i64 %15
  %39 = load i16, ptr %38, align 1, !tbaa !66
  %40 = zext i16 %39 to i32
  %41 = icmp eq i32 %4, %40
  %42 = icmp eq i32 %5, %30
  %or.cond = select i1 %41, i1 %42, i1 false
  br i1 %or.cond, label %44, label %43

43:                                               ; preds = %20, %7
  br label %44

44:                                               ; preds = %20, %43
  %.0 = phi i32 [ 0, %43 ], [ 1, %20 ]
  ret i32 %.0
}